; Function Attrs: mustprogress uwtable
define hidden void @_ZN9spacer_qe17array_project_eqsER5modelR10ref_vectorI3app11ast_managerER7obj_refI4exprS4_ES6_(ptr noundef nonnull align 8 dereferenceable(160) %mdl, ptr noundef nonnull align 8 dereferenceable(16) %arr_vars, ptr noundef nonnull align 8 dereferenceable(16) %fml, ptr noundef nonnull align 8 dereferenceable(16) %aux_vars) local_unnamed_addr #3 personality ptr @__gxx_personality_v0 {
entry:
  %ap = alloca %"class.spacer_qe::array_project_eqs_util", align 8
  %0 = load ptr, ptr %arr_vars, align 8
  call void @_ZN9spacer_qe22array_project_eqs_utilC2ER11ast_manager(ptr noundef nonnull align 8 dereferenceable(464) %ap, ptr noundef nonnull align 8 dereferenceable(976) %0)
  invoke void @_ZN9spacer_qe22array_project_eqs_utilclER5modelR10ref_vectorI3app11ast_managerER7obj_refI4exprS5_ES7_(ptr noundef nonnull align 8 dereferenceable(464) %ap, ptr noundef nonnull align 8 dereferenceable(160) %mdl, ptr noundef nonnull align 8 dereferenceable(16) %arr_vars, ptr noundef nonnull align 8 dereferenceable(16) %fml, ptr noundef nonnull align 8 dereferenceable(16) %aux_vars)
          to label %invoke.cont unwind label %lpad

invoke.cont:                                      ; preds = %entry
  call void @_ZN9spacer_qe22array_project_eqs_utilD2Ev(ptr noundef nonnull align 8 dereferenceable(464) %ap) #18
  ret void

lpad:                                             ; preds = %entry
  %1 = landingpad { ptr, i32 }
          cleanup
  call void @_ZN9spacer_qe22array_project_eqs_utilD2Ev(ptr noundef nonnull align 8 dereferenceable(464) %ap) #18
  resume { ptr, i32 } %1
}